; ModuleID = '9/527.c'
source_filename = "9/527.c"
target datalayout = "e-m:e-p270:32:32-p271:32:32-p272:64:64-i64:64-f80:128-n8:16:32:64-S128"
target triple = "x86_64-pc-linux-gnu"

@.str = private unnamed_addr constant [3 x i8] c"%d\00", align 1
@.str.1 = private unnamed_addr constant [3 x i8] c"%s\00", align 1

; Function Attrs: noinline nounwind uwtable
define dso_local i32 @main() #0 {
  %1 = alloca i32, align 4
  %2 = alloca [100 x [10 x i8]], align 16
  %3 = alloca [100 x [10 x i8]], align 16
  %4 = alloca [10 x i8], align 1
  %5 = alloca [100 x i32], align 16
  %6 = alloca [100 x i32], align 16
  %7 = alloca [100 x i32], align 16
  %8 = alloca i32, align 4
  %9 = alloca i32, align 4
  %10 = alloca i32, align 4
  %11 = alloca i32, align 4
  %12 = alloca i32, align 4
  %13 = alloca i32, align 4
  %14 = alloca i32, align 4
  store i32 0, i32* %1, align 4
  %15 = bitcast [100 x i32]* %5 to i8*
  call void @llvm.memset.p0i8.i64(i8* align 16 %15, i8 0, i64 400, i1 false)
  %16 = call i32 (i8*, ...) @__isoc99_scanf(i8* getelementptr inbounds ([3 x i8], [3 x i8]* @.str, i64 0, i64 0), i32* %8)
  store i32 -1, i32* %12, align 4
  store i32 -1, i32* %13, align 4
  store i32 1, i32* %9, align 4
  br label %17

17:                                               ; preds = %58, %0
  %18 = load i32, i32* %9, align 4
  %19 = load i32, i32* %8, align 4
  %20 = icmp sle i32 %18, %19
  br i1 %20, label %21, label %61

21:                                               ; preds = %17
  %22 = getelementptr inbounds [10 x i8], [10 x i8]* %4, i64 0, i64 0
  %23 = call i32 (i8*, ...) @__isoc99_scanf(i8* getelementptr inbounds ([3 x i8], [3 x i8]* @.str.1, i64 0, i64 0), i8* %22)
  %24 = call i32 (i8*, ...) @__isoc99_scanf(i8* getelementptr inbounds ([3 x i8], [3 x i8]* @.str, i64 0, i64 0), i32* %14)
  %25 = load i32, i32* %14, align 4
  %26 = icmp sge i32 %25, 60
  br i1 %26, label %27, label %44

27:                                               ; preds = %21
  %28 = load i32, i32* %12, align 4
  %29 = add nsw i32 %28, 1
  store i32 %29, i32* %12, align 4
  %30 = load i32, i32* %12, align 4
  %31 = sext i32 %30 to i64
  %32 = getelementptr inbounds [100 x [10 x i8]], [100 x [10 x i8]]* %2, i64 0, i64 %31
  %33 = getelementptr inbounds [10 x i8], [10 x i8]* %32, i64 0, i64 0
  %34 = getelementptr inbounds [10 x i8], [10 x i8]* %4, i64 0, i64 0
  %35 = call i8* @strcpy(i8* %33, i8* %34) #4
  %36 = load i32, i32* %14, align 4
  %37 = load i32, i32* %12, align 4
  %38 = sext i32 %37 to i64
  %39 = getelementptr inbounds [100 x i32], [100 x i32]* %6, i64 0, i64 %38
  store i32 %36, i32* %39, align 4
  %40 = load i32, i32* %12, align 4
  %41 = load i32, i32* %12, align 4
  %42 = sext i32 %41 to i64
  %43 = getelementptr inbounds [100 x i32], [100 x i32]* %5, i64 0, i64 %42
  store i32 %40, i32* %43, align 4
  br label %57

44:                                               ; preds = %21
  %45 = load i32, i32* %13, align 4
  %46 = add nsw i32 %45, 1
  store i32 %46, i32* %13, align 4
  %47 = load i32, i32* %13, align 4
  %48 = sext i32 %47 to i64
  %49 = getelementptr inbounds [100 x [10 x i8]], [100 x [10 x i8]]* %3, i64 0, i64 %48
  %50 = getelementptr inbounds [10 x i8], [10 x i8]* %49, i64 0, i64 0
  %51 = getelementptr inbounds [10 x i8], [10 x i8]* %4, i64 0, i64 0
  %52 = call i8* @strcpy(i8* %50, i8* %51) #4
  %53 = load i32, i32* %14, align 4
  %54 = load i32, i32* %13, align 4
  %55 = sext i32 %54 to i64
  %56 = getelementptr inbounds [100 x i32], [100 x i32]* %7, i64 0, i64 %55
  store i32 %53, i32* %56, align 4
  br label %57

57:                                               ; preds = %44, %27
  br label %58

58:                                               ; preds = %57
  %59 = load i32, i32* %9, align 4
  %60 = add nsw i32 %59, 1
  store i32 %60, i32* %9, align 4
  br label %17

61:                                               ; preds = %17
  store i32 0, i32* %9, align 4
  br label %62

62:                                               ; preds = %213, %61
  %63 = load i32, i32* %9, align 4
  %64 = load i32, i32* %12, align 4
  %65 = icmp slt i32 %63, %64
  br i1 %65, label %66, label %216

66:                                               ; preds = %62
  %67 = load i32, i32* %9, align 4
  %68 = add nsw i32 %67, 1
  store i32 %68, i32* %10, align 4
  br label %69

69:                                               ; preds = %209, %66
  %70 = load i32, i32* %10, align 4
  %71 = load i32, i32* %12, align 4
  %72 = icmp sle i32 %70, %71
  br i1 %72, label %73, label %212

73:                                               ; preds = %69
  %74 = load i32, i32* %9, align 4
  %75 = sext i32 %74 to i64
  %76 = getelementptr inbounds [100 x i32], [100 x i32]* %6, i64 0, i64 %75
  %77 = load i32, i32* %76, align 4
  %78 = load i32, i32* %10, align 4
  %79 = sext i32 %78 to i64
  %80 = getelementptr inbounds [100 x i32], [100 x i32]* %6, i64 0, i64 %79
  %81 = load i32, i32* %80, align 4
  %82 = icmp slt i32 %77, %81
  br i1 %82, label %83, label %135

83:                                               ; preds = %73
  %84 = load i32, i32* %9, align 4
  %85 = sext i32 %84 to i64
  %86 = getelementptr inbounds [100 x i32], [100 x i32]* %6, i64 0, i64 %85
  %87 = load i32, i32* %86, align 4
  store i32 %87, i32* %14, align 4
  %88 = load i32, i32* %10, align 4
  %89 = sext i32 %88 to i64
  %90 = getelementptr inbounds [100 x i32], [100 x i32]* %6, i64 0, i64 %89
  %91 = load i32, i32* %90, align 4
  %92 = load i32, i32* %9, align 4
  %93 = sext i32 %92 to i64
  %94 = getelementptr inbounds [100 x i32], [100 x i32]* %6, i64 0, i64 %93
  store i32 %91, i32* %94, align 4
  %95 = load i32, i32* %14, align 4
  %96 = load i32, i32* %10, align 4
  %97 = sext i32 %96 to i64
  %98 = getelementptr inbounds [100 x i32], [100 x i32]* %6, i64 0, i64 %97
  store i32 %95, i32* %98, align 4
  %99 = load i32, i32* %9, align 4
  %100 = sext i32 %99 to i64
  %101 = getelementptr inbounds [100 x i32], [100 x i32]* %5, i64 0, i64 %100
  %102 = load i32, i32* %101, align 4
  store i32 %102, i32* %14, align 4
  %103 = load i32, i32* %10, align 4
  %104 = sext i32 %103 to i64
  %105 = getelementptr inbounds [100 x i32], [100 x i32]* %5, i64 0, i64 %104
  %106 = load i32, i32* %105, align 4
  %107 = load i32, i32* %9, align 4
  %108 = sext i32 %107 to i64
  %109 = getelementptr inbounds [100 x i32], [100 x i32]* %5, i64 0, i64 %108
  store i32 %106, i32* %109, align 4
  %110 = load i32, i32* %14, align 4
  %111 = load i32, i32* %10, align 4
  %112 = sext i32 %111 to i64
  %113 = getelementptr inbounds [100 x i32], [100 x i32]* %5, i64 0, i64 %112
  store i32 %110, i32* %113, align 4
  %114 = getelementptr inbounds [10 x i8], [10 x i8]* %4, i64 0, i64 0
  %115 = load i32, i32* %9, align 4
  %116 = sext i32 %115 to i64
  %117 = getelementptr inbounds [100 x [10 x i8]], [100 x [10 x i8]]* %2, i64 0, i64 %116
  %118 = getelementptr inbounds [10 x i8], [10 x i8]* %117, i64 0, i64 0
  %119 = call i8* @strcpy(i8* %114, i8* %118) #4
  %120 = load i32, i32* %9, align 4
  %121 = sext i32 %120 to i64
  %122 = getelementptr inbounds [100 x [10 x i8]], [100 x [10 x i8]]* %2, i64 0, i64 %121
  %123 = getelementptr inbounds [10 x i8], [10 x i8]* %122, i64 0, i64 0
  %124 = load i32, i32* %10, align 4
  %125 = sext i32 %124 to i64
  %126 = getelementptr inbounds [100 x [10 x i8]], [100 x [10 x i8]]* %2, i64 0, i64 %125
  %127 = getelementptr inbounds [10 x i8], [10 x i8]* %126, i64 0, i64 0
  %128 = call i8* @strcpy(i8* %123, i8* %127) #4
  %129 = load i32, i32* %10, align 4
  %130 = sext i32 %129 to i64
  %131 = getelementptr inbounds [100 x [10 x i8]], [100 x [10 x i8]]* %2, i64 0, i64 %130
  %132 = getelementptr inbounds [10 x i8], [10 x i8]* %131, i64 0, i64 0
  %133 = getelementptr inbounds [10 x i8], [10 x i8]* %4, i64 0, i64 0
  %134 = call i8* @strcpy(i8* %132, i8* %133) #4
  br label %208

135:                                              ; preds = %73
  %136 = load i32, i32* %9, align 4
  %137 = sext i32 %136 to i64
  %138 = getelementptr inbounds [100 x i32], [100 x i32]* %6, i64 0, i64 %137
  %139 = load i32, i32* %138, align 4
  %140 = load i32, i32* %10, align 4
  %141 = sext i32 %140 to i64
  %142 = getelementptr inbounds [100 x i32], [100 x i32]* %6, i64 0, i64 %141
  %143 = load i32, i32* %142, align 4
  %144 = icmp eq i32 %139, %143
  br i1 %144, label %145, label %207

145:                                              ; preds = %135
  %146 = load i32, i32* %9, align 4
  %147 = sext i32 %146 to i64
  %148 = getelementptr inbounds [100 x i32], [100 x i32]* %5, i64 0, i64 %147
  %149 = load i32, i32* %148, align 4
  %150 = load i32, i32* %10, align 4
  %151 = sext i32 %150 to i64
  %152 = getelementptr inbounds [100 x i32], [100 x i32]* %5, i64 0, i64 %151
  %153 = load i32, i32* %152, align 4
  %154 = icmp sgt i32 %149, %153
  br i1 %154, label %155, label %207

155:                                              ; preds = %145
  %156 = load i32, i32* %9, align 4
  %157 = sext i32 %156 to i64
  %158 = getelementptr inbounds [100 x i32], [100 x i32]* %6, i64 0, i64 %157
  %159 = load i32, i32* %158, align 4
  store i32 %159, i32* %14, align 4
  %160 = load i32, i32* %10, align 4
  %161 = sext i32 %160 to i64
  %162 = getelementptr inbounds [100 x i32], [100 x i32]* %6, i64 0, i64 %161
  %163 = load i32, i32* %162, align 4
  %164 = load i32, i32* %9, align 4
  %165 = sext i32 %164 to i64
  %166 = getelementptr inbounds [100 x i32], [100 x i32]* %6, i64 0, i64 %165
  store i32 %163, i32* %166, align 4
  %167 = load i32, i32* %14, align 4
  %168 = load i32, i32* %10, align 4
  %169 = sext i32 %168 to i64
  %170 = getelementptr inbounds [100 x i32], [100 x i32]* %6, i64 0, i64 %169
  store i32 %167, i32* %170, align 4
  %171 = load i32, i32* %9, align 4
  %172 = sext i32 %171 to i64
  %173 = getelementptr inbounds [100 x i32], [100 x i32]* %5, i64 0, i64 %172
  %174 = load i32, i32* %173, align 4
  store i32 %174, i32* %14, align 4
  %175 = load i32, i32* %10, align 4
  %176 = sext i32 %175 to i64
  %177 = getelementptr inbounds [100 x i32], [100 x i32]* %5, i64 0, i64 %176
  %178 = load i32, i32* %177, align 4
  %179 = load i32, i32* %9, align 4
  %180 = sext i32 %179 to i64
  %181 = getelementptr inbounds [100 x i32], [100 x i32]* %5, i64 0, i64 %180
  store i32 %178, i32* %181, align 4
  %182 = load i32, i32* %14, align 4
  %183 = load i32, i32* %10, align 4
  %184 = sext i32 %183 to i64
  %185 = getelementptr inbounds [100 x i32], [100 x i32]* %5, i64 0, i64 %184
  store i32 %182, i32* %185, align 4
  %186 = getelementptr inbounds [10 x i8], [10 x i8]* %4, i64 0, i64 0
  %187 = load i32, i32* %9, align 4
  %188 = sext i32 %187 to i64
  %189 = getelementptr inbounds [100 x [10 x i8]], [100 x [10 x i8]]* %2, i64 0, i64 %188
  %190 = getelementptr inbounds [10 x i8], [10 x i8]* %189, i64 0, i64 0
  %191 = call i8* @strcpy(i8* %186, i8* %190) #4
  %192 = load i32, i32* %9, align 4
  %193 = sext i32 %192 to i64
  %194 = getelementptr inbounds [100 x [10 x i8]], [100 x [10 x i8]]* %2, i64 0, i64 %193
  %195 = getelementptr inbounds [10 x i8], [10 x i8]* %194, i64 0, i64 0
  %196 = load i32, i32* %10, align 4
  %197 = sext i32 %196 to i64
  %198 = getelementptr inbounds [100 x [10 x i8]], [100 x [10 x i8]]* %2, i64 0, i64 %197
  %199 = getelementptr inbounds [10 x i8], [10 x i8]* %198, i64 0, i64 0
  %200 = call i8* @strcpy(i8* %195, i8* %199) #4
  %201 = load i32, i32* %10, align 4
  %202 = sext i32 %201 to i64
  %203 = getelementptr inbounds [100 x [10 x i8]], [100 x [10 x i8]]* %2, i64 0, i64 %202
  %204 = getelementptr inbounds [10 x i8], [10 x i8]* %203, i64 0, i64 0
  %205 = getelementptr inbounds [10 x i8], [10 x i8]* %4, i64 0, i64 0
  %206 = call i8* @strcpy(i8* %204, i8* %205) #4
  br label %207

207:                                              ; preds = %155, %145, %135
  br label %208

208:                                              ; preds = %207, %83
  br label %209

209:                                              ; preds = %208
  %210 = load i32, i32* %10, align 4
  %211 = add nsw i32 %210, 1
  store i32 %211, i32* %10, align 4
  br label %69

212:                                              ; preds = %69
  br label %213

213:                                              ; preds = %212
  %214 = load i32, i32* %9, align 4
  %215 = add nsw i32 %214, 1
  store i32 %215, i32* %9, align 4
  br label %62

216:                                              ; preds = %62
  store i32 0, i32* %9, align 4
  br label %217

217:                                              ; preds = %227, %216
  %218 = load i32, i32* %9, align 4
  %219 = load i32, i32* %12, align 4
  %220 = icmp sle i32 %218, %219
  br i1 %220, label %221, label %230

221:                                              ; preds = %217
  %222 = load i32, i32* %9, align 4
  %223 = sext i32 %222 to i64
  %224 = getelementptr inbounds [100 x [10 x i8]], [100 x [10 x i8]]* %2, i64 0, i64 %223
  %225 = getelementptr inbounds [10 x i8], [10 x i8]* %224, i64 0, i64 0
  %226 = call i32 @puts(i8* %225)
  br label %227

227:                                              ; preds = %221
  %228 = load i32, i32* %9, align 4
  %229 = add nsw i32 %228, 1
  store i32 %229, i32* %9, align 4
  br label %217

230:                                              ; preds = %217
  store i32 0, i32* %9, align 4
  br label %231

231:                                              ; preds = %241, %230
  %232 = load i32, i32* %9, align 4
  %233 = load i32, i32* %13, align 4
  %234 = icmp sle i32 %232, %233
  br i1 %234, label %235, label %244

235:                                              ; preds = %231
  %236 = load i32, i32* %9, align 4
  %237 = sext i32 %236 to i64
  %238 = getelementptr inbounds [100 x [10 x i8]], [100 x [10 x i8]]* %3, i64 0, i64 %237
  %239 = getelementptr inbounds [10 x i8], [10 x i8]* %238, i64 0, i64 0
  %240 = call i32 @puts(i8* %239)
  br label %241

241:                                              ; preds = %235
  %242 = load i32, i32* %9, align 4
  %243 = add nsw i32 %242, 1
  store i32 %243, i32* %9, align 4
  br label %231

244:                                              ; preds = %231
  ret i32 0
}

; Function Attrs: argmemonly nounwind willreturn
declare void @llvm.memset.p0i8.i64(i8* nocapture writeonly, i8, i64, i1 immarg) #1

declare dso_local i32 @__isoc99_scanf(i8*, ...) #2

; Function Attrs: nounwind
declare dso_local i8* @strcpy(i8*, i8*) #3

declare dso_local i32 @puts(i8*) #2


!llvm.module.flags = !{!0}
!llvm.ident = !{!1}

!0 = !{i32 1, !"wchar_size", i32 4}
!1 = !{!"clang version 10.0.0-4ubuntu1 "}
